; Function Attrs: mustprogress uwtable
define noundef ptr @_ZNK6google8protobuf9ListValue18_InternalSerializeEPhPNS0_2io19EpsCopyOutputStreamE(ptr nocapture noundef nonnull readonly align 8 dereferenceable(48) %this, ptr noundef %target, ptr noundef %stream) unnamed_addr #3 align 2 {
entry:
  %current_size_.i.i.i = getelementptr inbounds i8, ptr %this, i64 24
  %0 = load i32, ptr %current_size_.i.i.i, align 8
  %cmp7.not = icmp eq i32 %0, 0
  br i1 %cmp7.not, label %for.end, label %for.body.lr.ph

for.body.lr.ph:                                   ; preds = %entry
  %1 = getelementptr inbounds i8, ptr %this, i64 16
  br label %for.body

for.body:                                         ; preds = %for.body.lr.ph, %for.body
  %target.addr.09 = phi ptr [ %target, %for.body.lr.ph ], [ %call5, %for.body ]
  %i.08 = phi i32 [ 0, %for.body.lr.ph ], [ %inc, %for.body ]
  %2 = load ptr, ptr %1, align 8
  %3 = ptrtoint ptr %2 to i64
  %and.i.i.i.i.i = and i64 %3, 1
  %cmp.i.i.i.i.i = icmp eq i64 %and.i.i.i.i.i, 0
  %sub.i.i.i.i.i = add i64 %3, -1
  %4 = inttoptr i64 %sub.i.i.i.i.i to ptr
  %elements.i.i.i.i = getelementptr inbounds i8, ptr %4, i64 8
  %idxprom.i.i.i.i = sext i32 %i.08 to i64
  %arrayidx.i.i.i.i = getelementptr inbounds [268435454 x ptr], ptr %elements.i.i.i.i, i64 0, i64 %idxprom.i.i.i.i
  %retval.0.i.i.i.i = select i1 %cmp.i.i.i.i.i, ptr %1, ptr %arrayidx.i.i.i.i
  %5 = load ptr, ptr %retval.0.i.i.i.i, align 8
  %_cached_size_.i = getelementptr inbounds i8, ptr %5, i64 24
  %6 = load atomic i32, ptr %_cached_size_.i monotonic, align 4
  %call5 = tail call noundef ptr @_ZN6google8protobuf8internal14WireFormatLite20InternalWriteMessageEiRKNS0_11MessageLiteEiPhPNS0_2io19EpsCopyOutputStreamE(i32 noundef 1, ptr noundef nonnull align 8 dereferenceable(16) %5, i32 noundef %6, ptr noundef %target.addr.09, ptr noundef %stream)
  %inc = add nuw i32 %i.08, 1
  %exitcond.not = icmp eq i32 %inc, %0
  br i1 %exitcond.not, label %for.end, label %for.body, !llvm.loop !20

for.end:                                          ; preds = %for.body, %entry
  %target.addr.0.lcssa = phi ptr [ %target, %entry ], [ %call5, %for.body ]
  %_internal_metadata_ = getelementptr inbounds i8, ptr %this, i64 8
  %7 = load i64, ptr %_internal_metadata_, align 8
  %and.i16 = and i64 %7, 1
  %tobool.i17.not = icmp eq i64 %and.i16, 0
  br i1 %tobool.i17.not, label %if.end, label %if.then.i

if.then.i:                                        ; preds = %for.end
  %and.i = and i64 %7, -2
  %8 = inttoptr i64 %and.i to ptr
  %unknown_fields.i = getelementptr inbounds i8, ptr %8, i64 8
  %call9 = tail call noundef ptr @_ZN6google8protobuf8internal10WireFormat37InternalSerializeUnknownFieldsToArrayERKNS0_15UnknownFieldSetEPhPNS0_2io19EpsCopyOutputStreamE(ptr noundef nonnull align 8 dereferenceable(24) %unknown_fields.i, ptr noundef %target.addr.0.lcssa, ptr noundef %stream)
  br label %if.end

if.end:                                           ; preds = %if.then.i, %for.end
  %target.addr.1 = phi ptr [ %call9, %if.then.i ], [ %target.addr.0.lcssa, %for.end ]
  ret ptr %target.addr.1
}